target datalayout = "e-m:e-p270:32:32-p271:32:32-p272:64:64-i64:64-i128:128-f80:128-n8:16:32:64-S128"
target triple = "x86_64-pc-linux-gnu"

%struct.client_response = type { ptr }
%struct.spawn_req = type { i32, ptr, i32, i32, ptr, ptr, ptr }
%struct.spawn_resp = type { i32, i32, ptr, i16, i32, ptr }

@plugin_type = external constant [0 x i8], align 1
@.str.1 = private unnamed_addr constant [7 x i8] c"pmi1.c\00", align 1
@.str.78 = private unnamed_addr constant [34 x i8] c"%s: %s: mpi/pmi2: in _handle_mcmd\00", align 1
@__func__._handle_mcmd = private unnamed_addr constant [13 x i8] c"_handle_mcmd\00", align 1
@.str.79 = private unnamed_addr constant [29 x i8] c"%s: %s: mpi/pmi2: got subcmd\00", align 1
@.str.80 = private unnamed_addr constant [12 x i8] c"spawnssofar\00", align 1
@pmi1_spawn = internal global ptr null, align 8
@.str.81 = private unnamed_addr constant [10 x i8] c"totspawns\00", align 1
@.str.82 = private unnamed_addr constant [11 x i8] c"preput_num\00", align 1
@.str.83 = private unnamed_addr constant [14 x i8] c"preput_key_%d\00", align 1
@.str.84 = private unnamed_addr constant [14 x i8] c"preput_val_%d\00", align 1
@.str.85 = private unnamed_addr constant [38 x i8] c"%s: %s: mpi/pmi2: got whole spawn req\00", align 1
@.str.86 = private unnamed_addr constant [46 x i8] c"cmd=spawn-response;rc=%d;errmsg=spawn failed;\00", align 1
@.str.87 = private unnamed_addr constant [23 x i8] c"mpi/pmi2: spawn failed\00", align 1
@.str.88 = private unnamed_addr constant [45 x i8] c"%s: %s: mpi/pmi2: spawn request sent to srun\00", align 1
@.str.89 = private unnamed_addr constant [35 x i8] c"%s: %s: mpi/pmi2: out _handle_mcmd\00", align 1

; Function Attrs: nounwind uwtable
define internal i32 @_handle_mcmd(i32 noundef %0, i32 noundef %1, ptr noundef %2) #0 {
  %4 = alloca i32, align 4
  %5 = alloca i32, align 4
  %6 = alloca ptr, align 8
  %7 = alloca ptr, align 8
  %8 = alloca ptr, align 8
  %9 = alloca ptr, align 8
  %10 = alloca i32, align 4
  %11 = alloca i32, align 4
  %12 = alloca i32, align 4
  %13 = alloca [64 x i8], align 16
  store i32 %0, ptr %4, align 4
  store i32 %1, ptr %5, align 4
  store ptr %2, ptr %6, align 8
  call void @llvm.lifetime.start.p0(i64 8, ptr %7) #6
  store ptr null, ptr %7, align 8
  call void @llvm.lifetime.start.p0(i64 8, ptr %8) #6
  store ptr null, ptr %8, align 8
  call void @llvm.lifetime.start.p0(i64 8, ptr %9) #6
  store ptr null, ptr %9, align 8
  call void @llvm.lifetime.start.p0(i64 4, ptr %10) #6
  store i32 0, ptr %10, align 4
  call void @llvm.lifetime.start.p0(i64 4, ptr %11) #6
  store i32 0, ptr %11, align 4
  call void @llvm.lifetime.start.p0(i64 4, ptr %12) #6
  call void @llvm.lifetime.start.p0(i64 64, ptr %13) #6
  br label %14

14:                                               ; preds = %3
  br label %15

15:                                               ; preds = %14
  %16 = call i32 @slurm_get_log_level()
  %17 = icmp sge i32 %16, 7
  br i1 %17, label %18, label %19

18:                                               ; preds = %15
  call void (i32, ptr, ...) @slurm_log_var(i32 noundef 7, ptr noundef @.str.78, ptr noundef @plugin_type, ptr noundef @__func__._handle_mcmd)
  br label %19

19:                                               ; preds = %18, %15
  br label %20

20:                                               ; preds = %19
  br label %21

21:                                               ; preds = %20
  br label %22

22:                                               ; preds = %21
  br label %23

23:                                               ; preds = %22
  %24 = load ptr, ptr %6, align 8
  %25 = call i32 @client_req_parse_body(ptr noundef %24)
  %26 = load ptr, ptr %6, align 8
  %27 = call ptr @client_req_parse_spawn_subcmd(ptr noundef %26)
  store ptr %27, ptr %7, align 8
  br label %28

28:                                               ; preds = %23
  br label %29

29:                                               ; preds = %28
  %30 = call i32 @slurm_get_log_level()
  %31 = icmp sge i32 %30, 7
  br i1 %31, label %32, label %33

32:                                               ; preds = %29
  call void (i32, ptr, ...) @slurm_log_var(i32 noundef 7, ptr noundef @.str.79, ptr noundef @plugin_type, ptr noundef @__func__._handle_mcmd)
  br label %33

33:                                               ; preds = %32, %29
  br label %34

34:                                               ; preds = %33
  br label %35

35:                                               ; preds = %34
  br label %36

36:                                               ; preds = %35
  br label %37

37:                                               ; preds = %36
  %38 = load ptr, ptr %6, align 8
  %39 = call zeroext i1 @client_req_get_int(ptr noundef %38, ptr noundef @.str.80, ptr noundef %10)
  %40 = load i32, ptr %10, align 4
  %41 = icmp eq i32 %40, 1
  br i1 %41, label %42, label %108

42:                                               ; preds = %37
  %43 = call ptr @spawn_req_new()
  store ptr %43, ptr @pmi1_spawn, align 8
  %44 = load ptr, ptr %6, align 8
  %45 = load ptr, ptr @pmi1_spawn, align 8
  %46 = getelementptr inbounds nuw %struct.spawn_req, ptr %45, i32 0, i32 2
  %47 = call zeroext i1 @client_req_get_int(ptr noundef %44, ptr noundef @.str.81, ptr noundef %46)
  %48 = load ptr, ptr @pmi1_spawn, align 8
  %49 = getelementptr inbounds nuw %struct.spawn_req, ptr %48, i32 0, i32 2
  %50 = load i32, ptr %49, align 8
  %51 = zext i32 %50 to i64
  %52 = call ptr @slurm_xcalloc(i64 noundef %51, i64 noundef 8, i1 noundef zeroext true, i1 noundef zeroext false, ptr noundef @.str.1, i32 noundef 458, ptr noundef @__func__._handle_mcmd)
  %53 = load ptr, ptr @pmi1_spawn, align 8
  %54 = getelementptr inbounds nuw %struct.spawn_req, ptr %53, i32 0, i32 6
  store ptr %52, ptr %54, align 8
  %55 = load ptr, ptr %6, align 8
  %56 = load ptr, ptr @pmi1_spawn, align 8
  %57 = getelementptr inbounds nuw %struct.spawn_req, ptr %56, i32 0, i32 3
  %58 = call zeroext i1 @client_req_get_int(ptr noundef %55, ptr noundef @.str.82, ptr noundef %57)
  %59 = load ptr, ptr @pmi1_spawn, align 8
  %60 = getelementptr inbounds nuw %struct.spawn_req, ptr %59, i32 0, i32 3
  %61 = load i32, ptr %60, align 4
  %62 = zext i32 %61 to i64
  %63 = call ptr @slurm_xcalloc(i64 noundef %62, i64 noundef 8, i1 noundef zeroext true, i1 noundef zeroext false, ptr noundef @.str.1, i32 noundef 462, ptr noundef @__func__._handle_mcmd)
  %64 = load ptr, ptr @pmi1_spawn, align 8
  %65 = getelementptr inbounds nuw %struct.spawn_req, ptr %64, i32 0, i32 4
  store ptr %63, ptr %65, align 8
  %66 = load ptr, ptr @pmi1_spawn, align 8
  %67 = getelementptr inbounds nuw %struct.spawn_req, ptr %66, i32 0, i32 3
  %68 = load i32, ptr %67, align 4
  %69 = zext i32 %68 to i64
  %70 = call ptr @slurm_xcalloc(i64 noundef %69, i64 noundef 8, i1 noundef zeroext true, i1 noundef zeroext false, ptr noundef @.str.1, i32 noundef 464, ptr noundef @__func__._handle_mcmd)
  %71 = load ptr, ptr @pmi1_spawn, align 8
  %72 = getelementptr inbounds nuw %struct.spawn_req, ptr %71, i32 0, i32 5
  store ptr %70, ptr %72, align 8
  store i32 0, ptr %12, align 4
  br label %73

73:                                               ; preds = %104, %42
  %74 = load i32, ptr %12, align 4
  %75 = load ptr, ptr @pmi1_spawn, align 8
  %76 = getelementptr inbounds nuw %struct.spawn_req, ptr %75, i32 0, i32 3
  %77 = load i32, ptr %76, align 4
  %78 = icmp ult i32 %74, %77
  br i1 %78, label %79, label %107

79:                                               ; preds = %73
  %80 = getelementptr inbounds [64 x i8], ptr %13, i64 0, i64 0
  %81 = load i32, ptr %12, align 4
  %82 = call i32 (ptr, i64, ptr, ...) @snprintf(ptr noundef %80, i64 noundef 64, ptr noundef @.str.83, i32 noundef %81) #6
  %83 = load ptr, ptr %6, align 8
  %84 = getelementptr inbounds [64 x i8], ptr %13, i64 0, i64 0
  %85 = load ptr, ptr @pmi1_spawn, align 8
  %86 = getelementptr inbounds nuw %struct.spawn_req, ptr %85, i32 0, i32 4
  %87 = load ptr, ptr %86, align 8
  %88 = load i32, ptr %12, align 4
  %89 = sext i32 %88 to i64
  %90 = getelementptr inbounds ptr, ptr %87, i64 %89
  %91 = call zeroext i1 @client_req_get_str(ptr noundef %83, ptr noundef %84, ptr noundef %90)
  %92 = getelementptr inbounds [64 x i8], ptr %13, i64 0, i64 0
  %93 = load i32, ptr %12, align 4
  %94 = call i32 (ptr, i64, ptr, ...) @snprintf(ptr noundef %92, i64 noundef 64, ptr noundef @.str.84, i32 noundef %93) #6
  %95 = load ptr, ptr %6, align 8
  %96 = getelementptr inbounds [64 x i8], ptr %13, i64 0, i64 0
  %97 = load ptr, ptr @pmi1_spawn, align 8
  %98 = getelementptr inbounds nuw %struct.spawn_req, ptr %97, i32 0, i32 5
  %99 = load ptr, ptr %98, align 8
  %100 = load i32, ptr %12, align 4
  %101 = sext i32 %100 to i64
  %102 = getelementptr inbounds ptr, ptr %99, i64 %101
  %103 = call zeroext i1 @client_req_get_str(ptr noundef %95, ptr noundef %96, ptr noundef %102)
  br label %104

104:                                              ; preds = %79
  %105 = load i32, ptr %12, align 4
  %106 = add nsw i32 %105, 1
  store i32 %106, ptr %12, align 4
  br label %73, !llvm.loop !15

107:                                              ; preds = %73
  br label %108

108:                                              ; preds = %107, %37
  %109 = load ptr, ptr %7, align 8
  %110 = load ptr, ptr @pmi1_spawn, align 8
  %111 = getelementptr inbounds nuw %struct.spawn_req, ptr %110, i32 0, i32 6
  %112 = load ptr, ptr %111, align 8
  %113 = load i32, ptr %10, align 4
  %114 = sub nsw i32 %113, 1
  %115 = sext i32 %114 to i64
  %116 = getelementptr inbounds ptr, ptr %112, i64 %115
  store ptr %109, ptr %116, align 8
  %117 = load i32, ptr %10, align 4
  %118 = load ptr, ptr @pmi1_spawn, align 8
  %119 = getelementptr inbounds nuw %struct.spawn_req, ptr %118, i32 0, i32 2
  %120 = load i32, ptr %119, align 8
  %121 = icmp eq i32 %117, %120
  br i1 %121, label %122, label %175

122:                                              ; preds = %108
  br label %123

123:                                              ; preds = %122
  br label %124

124:                                              ; preds = %123
  %125 = call i32 @slurm_get_log_level()
  %126 = icmp sge i32 %125, 7
  br i1 %126, label %127, label %128

127:                                              ; preds = %124
  call void (i32, ptr, ...) @slurm_log_var(i32 noundef 7, ptr noundef @.str.85, ptr noundef @plugin_type, ptr noundef @__func__._handle_mcmd)
  br label %128

128:                                              ; preds = %127, %124
  br label %129

129:                                              ; preds = %128
  br label %130

130:                                              ; preds = %129
  br label %131

131:                                              ; preds = %130
  br label %132

132:                                              ; preds = %131
  %133 = load ptr, ptr @pmi1_spawn, align 8
  %134 = call i32 @spawn_req_send_to_srun(ptr noundef %133, ptr noundef %8)
  store i32 %134, ptr %11, align 4
  %135 = load ptr, ptr %8, align 8
  %136 = getelementptr inbounds nuw %struct.spawn_resp, ptr %135, i32 0, i32 1
  %137 = load i32, ptr %136, align 4
  %138 = icmp ne i32 %137, 0
  br i1 %138, label %139, label %156

139:                                              ; preds = %132
  %140 = call ptr @client_resp_new()
  store ptr %140, ptr %9, align 8
  br label %141

141:                                              ; preds = %139
  %142 = load ptr, ptr %9, align 8
  %143 = getelementptr inbounds nuw %struct.client_response, ptr %142, i32 0, i32 0
  %144 = load ptr, ptr %8, align 8
  %145 = getelementptr inbounds nuw %struct.spawn_resp, ptr %144, i32 0, i32 1
  %146 = load i32, ptr %145, align 4
  call void (ptr, ptr, ...) @slurm_xstrfmtcat(ptr noundef %143, ptr noundef @.str.86, i32 noundef %146)
  br label %147

147:                                              ; preds = %141
  br label %148

148:                                              ; preds = %147
  %149 = load ptr, ptr %9, align 8
  %150 = load i32, ptr %4, align 4
  %151 = call i32 @client_resp_send(ptr noundef %149, i32 noundef %150)
  %152 = load ptr, ptr %9, align 8
  call void @client_resp_free(ptr noundef %152)
  %153 = load ptr, ptr %8, align 8
  call void @spawn_resp_free(ptr noundef %153)
  %154 = load ptr, ptr @pmi1_spawn, align 8
  call void @spawn_req_free(ptr noundef %154)
  store ptr null, ptr @pmi1_spawn, align 8
  %155 = call i32 (ptr, ...) @slurm_error(ptr noundef @.str.87)
  store i32 -1, ptr %11, align 4
  br label %176

156:                                              ; preds = %132
  br label %157

157:                                              ; preds = %156
  br label %158

158:                                              ; preds = %157
  %159 = call i32 @slurm_get_log_level()
  %160 = icmp sge i32 %159, 5
  br i1 %160, label %161, label %162

161:                                              ; preds = %158
  call void (i32, ptr, ...) @slurm_log_var(i32 noundef 5, ptr noundef @.str.88, ptr noundef @plugin_type, ptr noundef @__func__._handle_mcmd)
  br label %162

162:                                              ; preds = %161, %158
  br label %163

163:                                              ; preds = %162
  br label %164

164:                                              ; preds = %163
  br label %165

165:                                              ; preds = %164
  br label %166

166:                                              ; preds = %165
  %167 = load ptr, ptr %8, align 8
  %168 = getelementptr inbounds nuw %struct.spawn_resp, ptr %167, i32 0, i32 0
  %169 = load i32, ptr %168, align 8
  %170 = load i32, ptr %4, align 4
  %171 = load i32, ptr %5, align 4
  %172 = call i32 @spawn_psr_enqueue(i32 noundef %169, i32 noundef %170, i32 noundef %171, ptr noundef null)
  %173 = load ptr, ptr %8, align 8
  call void @spawn_resp_free(ptr noundef %173)
  %174 = load ptr, ptr @pmi1_spawn, align 8
  call void @spawn_req_free(ptr noundef %174)
  store ptr null, ptr @pmi1_spawn, align 8
  br label %175

175:                                              ; preds = %166, %108
  br label %176

176:                                              ; preds = %175, %148
  br label %177

177:                                              ; preds = %176
  br label %178

178:                                              ; preds = %177
  %179 = call i32 @slurm_get_log_level()
  %180 = icmp sge i32 %179, 7
  br i1 %180, label %181, label %182

181:                                              ; preds = %178
  call void (i32, ptr, ...) @slurm_log_var(i32 noundef 7, ptr noundef @.str.89, ptr noundef @plugin_type, ptr noundef @__func__._handle_mcmd)
  br label %182

182:                                              ; preds = %181, %178
  br label %183

183:                                              ; preds = %182
  br label %184

184:                                              ; preds = %183
  br label %185

185:                                              ; preds = %184
  br label %186

186:                                              ; preds = %185
  %187 = load i32, ptr %11, align 4
  call void @llvm.lifetime.end.p0(i64 64, ptr %13) #6
  call void @llvm.lifetime.end.p0(i64 4, ptr %12) #6
  call void @llvm.lifetime.end.p0(i64 4, ptr %11) #6
  call void @llvm.lifetime.end.p0(i64 4, ptr %10) #6
  call void @llvm.lifetime.end.p0(i64 8, ptr %9) #6
  call void @llvm.lifetime.end.p0(i64 8, ptr %8) #6
  call void @llvm.lifetime.end.p0(i64 8, ptr %7) #6
  ret i32 %187
}