; Function Attrs: nounwind uwtable
define internal i32 @_handle_mcmd(i32 noundef %0, i32 noundef %1, ptr noundef %2) #0 {
  %4 = alloca ptr, align 8
  %5 = alloca i32, align 4
  %6 = alloca [64 x i8], align 16
  call void @llvm.lifetime.start.p0(i64 8, ptr nonnull %4) #8
  store ptr null, ptr %4, align 8
  call void @llvm.lifetime.start.p0(i64 4, ptr nonnull %5) #8
  store i32 0, ptr %5, align 4
  call void @llvm.lifetime.start.p0(i64 64, ptr nonnull %6) #8
  %7 = tail call i32 @slurm_get_log_level() #8
  %8 = icmp sgt i32 %7, 6
  br i1 %8, label %9, label %10

9:                                                ; preds = %3
  tail call void (i32, ptr, ...) @slurm_log_var(i32 noundef 7, ptr noundef nonnull @.str.78, ptr noundef nonnull @plugin_type, ptr noundef nonnull @__func__._handle_mcmd) #8
  br label %10

10:                                               ; preds = %9, %3
  %11 = tail call i32 @client_req_parse_body(ptr noundef %2) #8
  %12 = tail call ptr @client_req_parse_spawn_subcmd(ptr noundef %2) #8
  %13 = tail call i32 @slurm_get_log_level() #8
  %14 = icmp sgt i32 %13, 6
  br i1 %14, label %15, label %16

15:                                               ; preds = %10
  tail call void (i32, ptr, ...) @slurm_log_var(i32 noundef 7, ptr noundef nonnull @.str.79, ptr noundef nonnull @plugin_type, ptr noundef nonnull @__func__._handle_mcmd) #8
  br label %16

16:                                               ; preds = %15, %10
  %17 = call zeroext i1 @client_req_get_int(ptr noundef %2, ptr noundef nonnull @.str.80, ptr noundef nonnull %5) #8
  %18 = load i32, ptr %5, align 4
  %19 = icmp eq i32 %18, 1
  br i1 %19, label %20, label %..loopexit_crit_edge

..loopexit_crit_edge:                             ; preds = %16
  %.pre = load ptr, ptr @pmi1_spawn, align 8
  br label %.loopexit

20:                                               ; preds = %16
  %21 = call ptr @spawn_req_new() #8
  store ptr %21, ptr @pmi1_spawn, align 8
  %22 = getelementptr inbounds nuw i8, ptr %21, i64 16
  %23 = call zeroext i1 @client_req_get_int(ptr noundef %2, ptr noundef nonnull @.str.81, ptr noundef nonnull %22) #8
  %24 = load ptr, ptr @pmi1_spawn, align 8
  %25 = getelementptr inbounds nuw i8, ptr %24, i64 16
  %26 = load i32, ptr %25, align 8
  %27 = zext i32 %26 to i64
  %28 = call ptr @slurm_xcalloc(i64 noundef %27, i64 noundef 8, i1 noundef zeroext true, i1 noundef zeroext false, ptr noundef nonnull @.str.1, i32 noundef 458, ptr noundef nonnull @__func__._handle_mcmd) #8
  %29 = load ptr, ptr @pmi1_spawn, align 8
  %30 = getelementptr inbounds nuw i8, ptr %29, i64 40
  store ptr %28, ptr %30, align 8
  %31 = getelementptr inbounds nuw i8, ptr %29, i64 20
  %32 = call zeroext i1 @client_req_get_int(ptr noundef %2, ptr noundef nonnull @.str.82, ptr noundef nonnull %31) #8
  %33 = load ptr, ptr @pmi1_spawn, align 8
  %34 = getelementptr inbounds nuw i8, ptr %33, i64 20
  %35 = load i32, ptr %34, align 4
  %36 = zext i32 %35 to i64
  %37 = call ptr @slurm_xcalloc(i64 noundef %36, i64 noundef 8, i1 noundef zeroext true, i1 noundef zeroext false, ptr noundef nonnull @.str.1, i32 noundef 462, ptr noundef nonnull @__func__._handle_mcmd) #8
  %38 = load ptr, ptr @pmi1_spawn, align 8
  %39 = getelementptr inbounds nuw i8, ptr %38, i64 24
  store ptr %37, ptr %39, align 8
  %40 = getelementptr inbounds nuw i8, ptr %38, i64 20
  %41 = load i32, ptr %40, align 4
  %42 = zext i32 %41 to i64
  %43 = call ptr @slurm_xcalloc(i64 noundef %42, i64 noundef 8, i1 noundef zeroext true, i1 noundef zeroext false, ptr noundef nonnull @.str.1, i32 noundef 464, ptr noundef nonnull @__func__._handle_mcmd) #8
  %44 = load ptr, ptr @pmi1_spawn, align 8
  %45 = getelementptr inbounds nuw i8, ptr %44, i64 32
  store ptr %43, ptr %45, align 8
  %46 = getelementptr inbounds nuw i8, ptr %44, i64 20
  %47 = load i32, ptr %46, align 4
  %.not22 = icmp eq i32 %47, 0
  br i1 %.not22, label %.loopexit, label %.lr.ph

.lr.ph:                                           ; preds = %20, %.lr.ph
  %indvars.iv = phi i64 [ %indvars.iv.next, %.lr.ph ], [ 0, %20 ]
  %48 = trunc nuw nsw i64 %indvars.iv to i32
  %49 = call i32 (ptr, i64, ptr, ...) @snprintf(ptr noundef nonnull dereferenceable(1) %6, i64 noundef 64, ptr noundef nonnull @.str.83, i32 noundef %48) #8
  %50 = load ptr, ptr @pmi1_spawn, align 8
  %51 = getelementptr inbounds nuw i8, ptr %50, i64 24
  %52 = load ptr, ptr %51, align 8
  %53 = getelementptr inbounds nuw ptr, ptr %52, i64 %indvars.iv
  %54 = call zeroext i1 @client_req_get_str(ptr noundef %2, ptr noundef nonnull %6, ptr noundef %53) #8
  %55 = call i32 (ptr, i64, ptr, ...) @snprintf(ptr noundef nonnull dereferenceable(1) %6, i64 noundef 64, ptr noundef nonnull @.str.84, i32 noundef %48) #8
  %56 = load ptr, ptr @pmi1_spawn, align 8
  %57 = getelementptr inbounds nuw i8, ptr %56, i64 32
  %58 = load ptr, ptr %57, align 8
  %59 = getelementptr inbounds nuw ptr, ptr %58, i64 %indvars.iv
  %60 = call zeroext i1 @client_req_get_str(ptr noundef %2, ptr noundef nonnull %6, ptr noundef %59) #8
  %indvars.iv.next = add nuw nsw i64 %indvars.iv, 1
  %61 = load ptr, ptr @pmi1_spawn, align 8
  %62 = getelementptr inbounds nuw i8, ptr %61, i64 20
  %63 = load i32, ptr %62, align 4
  %64 = zext i32 %63 to i64
  %65 = icmp samesign ult i64 %indvars.iv.next, %64
  br i1 %65, label %.lr.ph, label %.loopexit, !llvm.loop !15

.loopexit:                                        ; preds = %.lr.ph, %..loopexit_crit_edge, %20
  %66 = phi ptr [ %.pre, %..loopexit_crit_edge ], [ %44, %20 ], [ %61, %.lr.ph ]
  %67 = getelementptr inbounds nuw i8, ptr %66, i64 40
  %68 = load ptr, ptr %67, align 8
  %69 = load i32, ptr %5, align 4
  %70 = sext i32 %69 to i64
  %71 = getelementptr ptr, ptr %68, i64 %70
  %72 = getelementptr i8, ptr %71, i64 -8
  store ptr %12, ptr %72, align 8
  %73 = getelementptr inbounds nuw i8, ptr %66, i64 16
  %74 = load i32, ptr %73, align 8
  %75 = icmp eq i32 %69, %74
  br i1 %75, label %76, label %105

76:                                               ; preds = %.loopexit
  %77 = call i32 @slurm_get_log_level() #8
  %78 = icmp sgt i32 %77, 6
  br i1 %78, label %79, label %80

79:                                               ; preds = %76
  call void (i32, ptr, ...) @slurm_log_var(i32 noundef 7, ptr noundef nonnull @.str.85, ptr noundef nonnull @plugin_type, ptr noundef nonnull @__func__._handle_mcmd) #8
  br label %80

80:                                               ; preds = %79, %76
  %81 = load ptr, ptr @pmi1_spawn, align 8
  %82 = call i32 @spawn_req_send_to_srun(ptr noundef %81, ptr noundef nonnull %4) #8
  %83 = load ptr, ptr %4, align 8
  %84 = getelementptr inbounds nuw i8, ptr %83, i64 4
  %85 = load i32, ptr %84, align 4
  %.not = icmp eq i32 %85, 0
  br i1 %.not, label %95, label %86

86:                                               ; preds = %80
  %87 = call ptr @client_resp_new() #8
  %88 = load ptr, ptr %4, align 8
  %89 = getelementptr inbounds nuw i8, ptr %88, i64 4
  %90 = load i32, ptr %89, align 4
  call void (ptr, ptr, ...) @slurm_xstrfmtcat(ptr noundef %87, ptr noundef nonnull @.str.86, i32 noundef %90) #8
  %91 = call i32 @client_resp_send(ptr noundef %87, i32 noundef %0) #8
  call void @client_resp_free(ptr noundef %87) #8
  %92 = load ptr, ptr %4, align 8
  call void @spawn_resp_free(ptr noundef %92) #8
  %93 = load ptr, ptr @pmi1_spawn, align 8
  call void @spawn_req_free(ptr noundef %93) #8
  store ptr null, ptr @pmi1_spawn, align 8
  %94 = call i32 (ptr, ...) @slurm_error(ptr noundef nonnull @.str.87) #8
  br label %105

95:                                               ; preds = %80
  %96 = call i32 @slurm_get_log_level() #8
  %97 = icmp sgt i32 %96, 4
  br i1 %97, label %98, label %99

98:                                               ; preds = %95
  call void (i32, ptr, ...) @slurm_log_var(i32 noundef 5, ptr noundef nonnull @.str.88, ptr noundef nonnull @plugin_type, ptr noundef nonnull @__func__._handle_mcmd) #8
  br label %99

99:                                               ; preds = %98, %95
  %100 = load ptr, ptr %4, align 8
  %101 = load i32, ptr %100, align 8
  %102 = call i32 @spawn_psr_enqueue(i32 noundef %101, i32 noundef %0, i32 noundef %1, ptr noundef null) #8
  %103 = load ptr, ptr %4, align 8
  call void @spawn_resp_free(ptr noundef %103) #8
  %104 = load ptr, ptr @pmi1_spawn, align 8
  call void @spawn_req_free(ptr noundef %104) #8
  store ptr null, ptr @pmi1_spawn, align 8
  br label %105

105:                                              ; preds = %.loopexit, %99, %86
  %.020 = phi i32 [ -1, %86 ], [ %82, %99 ], [ 0, %.loopexit ]
  %106 = call i32 @slurm_get_log_level() #8
  %107 = icmp sgt i32 %106, 6
  br i1 %107, label %108, label %109

108:                                              ; preds = %105
  call void (i32, ptr, ...) @slurm_log_var(i32 noundef 7, ptr noundef nonnull @.str.89, ptr noundef nonnull @plugin_type, ptr noundef nonnull @__func__._handle_mcmd) #8
  br label %109

109:                                              ; preds = %108, %105
  call void @llvm.lifetime.end.p0(i64 64, ptr nonnull %6) #8
  call void @llvm.lifetime.end.p0(i64 4, ptr nonnull %5) #8
  call void @llvm.lifetime.end.p0(i64 8, ptr nonnull %4) #8
  ret i32 %.020
}